; Function Attrs: mustprogress uwtable
define void @_ZN5boost6fibers5mutex4lockEv(ptr noundef nonnull align 8 dereferenceable(32) %0) local_unnamed_addr #3 align 2 personality ptr @__gxx_personality_v0 {
  %2 = alloca %"class.std::unique_lock", align 8
  %3 = getelementptr inbounds nuw i8, ptr %2, i64 8
  %4 = getelementptr inbounds nuw i8, ptr %0, i64 24
  %5 = getelementptr inbounds nuw i8, ptr %0, i64 8
  br label %6

6:                                                ; preds = %_ZNSt11unique_lockIN5boost6fibers6detail13spinlock_ttasEED2Ev.exit, %1
  %7 = call noundef ptr @_ZN5boost6fibers7context6activeEv() #19
  call void @llvm.lifetime.start.p0(i64 16, ptr nonnull %2) #19
  store ptr %0, ptr %2, align 8, !tbaa !3
  store i8 0, ptr %3, align 8, !tbaa !9
  call void @_ZN5boost6fibers6detail13spinlock_ttas4lockEv(ptr noundef nonnull align 4 dereferenceable(4) %0) #19
  store i8 1, ptr %3, align 8, !tbaa !9
  %8 = load ptr, ptr %4, align 8, !tbaa !10
  %9 = icmp eq ptr %7, %8
  br i1 %9, label %10, label %16, !prof !23

10:                                               ; preds = %6
  %11 = call ptr @__cxa_allocate_exception(i64 32) #19
  %12 = tail call noundef nonnull align 8 dereferenceable(8) ptr @_ZNSt3_V216generic_categoryEv() #20
  invoke void @_ZNSt12system_errorC2ESt10error_codePKc(ptr noundef nonnull align 8 dereferenceable(32) %11, i32 35, ptr nonnull %12, ptr noundef nonnull @.str)
          to label %13 unwind label %14

13:                                               ; preds = %10
  store ptr getelementptr inbounds inrange(-16, 24) (i8, ptr @_ZTVN5boost6fibers10lock_errorE, i64 16), ptr %11, align 8, !tbaa !24
  invoke void @__cxa_throw(ptr nonnull %11, ptr nonnull @_ZTIN5boost6fibers10lock_errorE, ptr nonnull @_ZNSt12system_errorD2Ev) #21
          to label %30 unwind label %.loopexit.split-lp

14:                                               ; preds = %10
  %15 = landingpad { ptr, i32 }
          cleanup
  call void @__cxa_free_exception(ptr %11) #19
  br label %23

.loopexit:                                        ; preds = %17
  %lpad.loopexit = landingpad { ptr, i32 }
          cleanup
  br label %23

.loopexit.split-lp:                               ; preds = %13
  %lpad.loopexit.split-lp = landingpad { ptr, i32 }
          cleanup
  br label %23

16:                                               ; preds = %6
  %.not = icmp eq ptr %8, null
  br i1 %.not, label %.thread, label %17

.thread:                                          ; preds = %16
  store ptr %7, ptr %4, align 8, !tbaa !10
  br label %20

17:                                               ; preds = %16
  invoke void @_ZN5boost6fibers10wait_queue16suspend_and_waitERSt11unique_lockINS0_6detail13spinlock_ttasEEPNS0_7contextE(ptr noundef nonnull align 8 dereferenceable(16) %5, ptr noundef nonnull align 8 dereferenceable(9) %2, ptr noundef %7)
          to label %18 unwind label %.loopexit

18:                                               ; preds = %17
  %.pre = load i8, ptr %3, align 8, !tbaa !9, !range !26
  %19 = trunc nuw i8 %.pre to i1
  br i1 %19, label %20, label %_ZNSt11unique_lockIN5boost6fibers6detail13spinlock_ttasEED2Ev.exit

20:                                               ; preds = %.thread, %18
  %21 = load ptr, ptr %2, align 8, !tbaa !3
  %.not.i.i = icmp eq ptr %21, null
  br i1 %.not.i.i, label %_ZNSt11unique_lockIN5boost6fibers6detail13spinlock_ttasEED2Ev.exit, label %22

22:                                               ; preds = %20
  store atomic i32 1, ptr %21 release, align 4
  br label %_ZNSt11unique_lockIN5boost6fibers6detail13spinlock_ttasEED2Ev.exit

_ZNSt11unique_lockIN5boost6fibers6detail13spinlock_ttasEED2Ev.exit: ; preds = %18, %20, %22
  call void @llvm.lifetime.end.p0(i64 16, ptr nonnull %2) #19
  br i1 %.not, label %29, label %6

23:                                               ; preds = %.loopexit, %.loopexit.split-lp, %14
  %.pn = phi { ptr, i32 } [ %15, %14 ], [ %lpad.loopexit, %.loopexit ], [ %lpad.loopexit.split-lp, %.loopexit.split-lp ]
  %24 = load i8, ptr %3, align 8, !tbaa !9, !range !26, !noundef !27
  %25 = trunc nuw i8 %24 to i1
  br i1 %25, label %26, label %_ZNSt11unique_lockIN5boost6fibers6detail13spinlock_ttasEED2Ev.exit12

26:                                               ; preds = %23
  %27 = load ptr, ptr %2, align 8, !tbaa !3
  %.not.i.i11 = icmp eq ptr %27, null
  br i1 %.not.i.i11, label %_ZNSt11unique_lockIN5boost6fibers6detail13spinlock_ttasEED2Ev.exit12, label %28

28:                                               ; preds = %26
  store atomic i32 1, ptr %27 release, align 4
  br label %_ZNSt11unique_lockIN5boost6fibers6detail13spinlock_ttasEED2Ev.exit12

_ZNSt11unique_lockIN5boost6fibers6detail13spinlock_ttasEED2Ev.exit12: ; preds = %23, %26, %28
  call void @llvm.lifetime.end.p0(i64 16, ptr nonnull %2) #19
  resume { ptr, i32 } %.pn

29:                                               ; preds = %_ZNSt11unique_lockIN5boost6fibers6detail13spinlock_ttasEED2Ev.exit
  ret void

30:                                               ; preds = %13
  unreachable
}